(lp1
(lp2
I4
aI0
aI0
aI0
aa(lp3
I4
aI0
aI0
aI0
aa(lp4
I4
aI0
aI0
aI0
aa(lp5
I8
aI0
aI0
aI0
aa(lp6
I8
aI0
aI0
aI4
aa(lp7
I2
aI0
aI0
aI0
aa(lp8
I3
aI0
aI0
aI0
aa(lp9
I3
aI0
aI0
aI0
aa(lp10
I4
aI0
aI0
aI0
aa(lp11
I6
aI0
aI0
aI0
aa(lp12
I11
aI0
aI0
aI0
aa(lp13
I8
aI0
aI0
aI4
aa(lp14
I4
aI0
aI0
aI0
aa(lp15
I2
aI0
aI0
aI0
aa(lp16
I3
aI0
aI0
aI0
aa.